; Function Attrs: nounwind uwtable
define dso_local range(i32 0, 2) i32 @jv_object_has(i64 %0, ptr %1, i64 %2, ptr %3) local_unnamed_addr #2 {
  %5 = tail call fastcc ptr @jvp_object_find_bucket(i64 %0, ptr %1, ptr %3)
  %6 = tail call fastcc ptr @jvp_object_find_slot(ptr %1, ptr %3, ptr noundef nonnull %5)
  %7 = icmp ne ptr %6, null
  %8 = zext i1 %7 to i32
  tail call void @jv_free(i64 %0, ptr %1)
  tail call void @jv_free(i64 %2, ptr %3)
  ret i32 %8
}